target datalayout = "e-m:e-p270:32:32-p271:32:32-p272:64:64-i64:64-i128:128-f80:128-n8:16:32:64-S128"
target triple = "x86_64-pc-linux-gnu"

%struct.sq_queue_s = type { ptr, ptr }
%struct.mutex_s = type { %struct.sem_s, i32 }
%struct.sem_s = type { i16, i8, %struct.dq_queue_s, ptr }
%struct.dq_queue_s = type { ptr, ptr }
%struct.rmutex_s = type { %struct.mutex_s, i32 }
%struct.mm_map_s = type { %struct.sq_queue_s, i64, %struct.rmutex_s }
%struct.mm_map_entry_s = type { ptr, ptr, i64, i32, i32, i32, %union.anon, ptr }
%union.anon = type { ptr }

; Function Attrs: nounwind uwtable
define void @mm_map_destroy(ptr noundef %0) #0 {
  %2 = alloca ptr, align 8
  %3 = alloca ptr, align 8
  store ptr %0, ptr %2, align 8
  br label %4

4:                                                ; preds = %31, %1
  %5 = load ptr, ptr %2, align 8
  %6 = getelementptr inbounds %struct.mm_map_s, ptr %5, i32 0, i32 0
  %7 = call ptr @sq_remfirst(ptr noundef %6)
  store ptr %7, ptr %3, align 8
  %8 = icmp ne ptr %7, null
  br i1 %8, label %9, label %37

9:                                                ; preds = %4
  %10 = load ptr, ptr %3, align 8
  %11 = getelementptr inbounds %struct.mm_map_entry_s, ptr %10, i32 0, i32 7
  %12 = load ptr, ptr %11, align 8
  %13 = icmp ne ptr %12, null
  br i1 %13, label %14, label %31

14:                                               ; preds = %9
  %15 = load ptr, ptr %3, align 8
  %16 = getelementptr inbounds %struct.mm_map_entry_s, ptr %15, i32 0, i32 7
  %17 = load ptr, ptr %16, align 8
  %18 = load ptr, ptr %3, align 8
  %19 = load ptr, ptr %3, align 8
  %20 = getelementptr inbounds %struct.mm_map_entry_s, ptr %19, i32 0, i32 1
  %21 = load ptr, ptr %20, align 8
  %22 = load ptr, ptr %3, align 8
  %23 = getelementptr inbounds %struct.mm_map_entry_s, ptr %22, i32 0, i32 2
  %24 = load i64, ptr %23, align 8
  %25 = call i32 %17(ptr noundef null, ptr noundef %18, ptr noundef %21, i64 noundef %24)
  %26 = icmp slt i32 %25, 0
  br i1 %26, label %27, label %30

27:                                               ; preds = %14
  br label %28

28:                                               ; preds = %27
  br label %29

29:                                               ; preds = %28
  br label %30

30:                                               ; preds = %29, %14
  br label %31

31:                                               ; preds = %30, %9
  %32 = load ptr, ptr %2, align 8
  %33 = getelementptr inbounds %struct.mm_map_s, ptr %32, i32 0, i32 1
  %34 = load i64, ptr %33, align 8
  %35 = add i64 %34, -1
  store i64 %35, ptr %33, align 8
  %36 = load ptr, ptr %3, align 8
  call void @free(ptr noundef %36)
  br label %4, !llvm.loop !6

37:                                               ; preds = %4
  %38 = load ptr, ptr %2, align 8
  %39 = getelementptr inbounds %struct.mm_map_s, ptr %38, i32 0, i32 2
  %40 = call i32 @nxrmutex_destroy(ptr noundef %39)
  ret void
}