; Function Attrs: nounwind uwtable
define void @mm_map_destroy(ptr noundef %0) local_unnamed_addr #0 {
  %2 = tail call ptr @sq_remfirst(ptr noundef %0) #6
  %.not11 = icmp eq ptr %2, null
  br i1 %.not11, label %._crit_edge, label %.lr.ph

.lr.ph:                                           ; preds = %1
  %3 = getelementptr inbounds nuw i8, ptr %0, i64 16
  br label %4

4:                                                ; preds = %.lr.ph, %14
  %5 = phi ptr [ %2, %.lr.ph ], [ %17, %14 ]
  %6 = getelementptr inbounds nuw i8, ptr %5, i64 48
  %7 = load ptr, ptr %6, align 8
  %.not10 = icmp eq ptr %7, null
  br i1 %.not10, label %14, label %8

8:                                                ; preds = %4
  %9 = getelementptr inbounds nuw i8, ptr %5, i64 8
  %10 = load ptr, ptr %9, align 8
  %11 = getelementptr inbounds nuw i8, ptr %5, i64 16
  %12 = load i64, ptr %11, align 8
  %13 = tail call i32 %7(ptr noundef null, ptr noundef nonnull %5, ptr noundef %10, i64 noundef %12) #6
  br label %14

14:                                               ; preds = %8, %4
  %15 = load i64, ptr %3, align 8
  %16 = add i64 %15, -1
  store i64 %16, ptr %3, align 8
  tail call void @free(ptr noundef nonnull %5)
  %17 = tail call ptr @sq_remfirst(ptr noundef %0) #6
  %.not = icmp eq ptr %17, null
  br i1 %.not, label %._crit_edge, label %4, !llvm.loop !6

._crit_edge:                                      ; preds = %14, %1
  %18 = getelementptr inbounds nuw i8, ptr %0, i64 24
  %19 = tail call i32 @nxrmutex_destroy(ptr noundef nonnull %18) #6
  ret void
}